; ModuleID = '215.c'
source_filename = "215.c"
target datalayout = "e-m:e-p270:32:32-p271:32:32-p272:64:64-i64:64-f80:128-n8:16:32:64-S128"
target triple = "x86_64-pc-linux-gnu"

@.str = private unnamed_addr constant [3 x i8] c"%d\00", align 1
@.str.1 = private unnamed_addr constant [5 x i8] c"%d%d\00", align 1
@.str.2 = private unnamed_addr constant [7 x i8] c"%d%d%d\00", align 1
@.str.3 = private unnamed_addr constant [9 x i8] c"%d%d%d%d\00", align 1
@.str.4 = private unnamed_addr constant [11 x i8] c"%d%d%d%d%d\00", align 1

; Function Attrs: noinline nounwind uwtable
define dso_local i32 @main() #0 {
  %1 = alloca i32, align 4
  %2 = alloca i32, align 4
  %3 = alloca i32, align 4
  %4 = alloca i32, align 4
  %5 = alloca i32, align 4
  %6 = alloca i32, align 4
  %7 = alloca i32, align 4
  store i32 0, i32* %1, align 4
  %8 = call i32 (i8*, ...) @__isoc99_scanf(i8* getelementptr inbounds ([3 x i8], [3 x i8]* @.str, i64 0, i64 0), i32* %2)
  %9 = load i32, i32* %2, align 4
  %10 = srem i32 %9, 10
  store i32 %10, i32* %3, align 4
  %11 = load i32, i32* %2, align 4
  %12 = load i32, i32* %3, align 4
  %13 = sub nsw i32 %11, %12
  %14 = sdiv i32 %13, 10
  %15 = srem i32 %14, 10
  store i32 %15, i32* %4, align 4
  %16 = load i32, i32* %2, align 4
  %17 = load i32, i32* %3, align 4
  %18 = sub nsw i32 %16, %17
  %19 = load i32, i32* %4, align 4
  %20 = mul nsw i32 10, %19
  %21 = sub nsw i32 %18, %20
  %22 = sdiv i32 %21, 100
  %23 = srem i32 %22, 10
  store i32 %23, i32* %5, align 4
  %24 = load i32, i32* %2, align 4
  %25 = load i32, i32* %3, align 4
  %26 = sub nsw i32 %24, %25
  %27 = load i32, i32* %4, align 4
  %28 = mul nsw i32 10, %27
  %29 = sub nsw i32 %26, %28
  %30 = load i32, i32* %5, align 4
  %31 = mul nsw i32 100, %30
  %32 = sub nsw i32 %29, %31
  %33 = sdiv i32 %32, 1000
  %34 = srem i32 %33, 10
  store i32 %34, i32* %6, align 4
  %35 = load i32, i32* %2, align 4
  %36 = load i32, i32* %3, align 4
  %37 = sub nsw i32 %35, %36
  %38 = load i32, i32* %4, align 4
  %39 = mul nsw i32 10, %38
  %40 = sub nsw i32 %37, %39
  %41 = load i32, i32* %5, align 4
  %42 = mul nsw i32 100, %41
  %43 = sub nsw i32 %40, %42
  %44 = load i32, i32* %6, align 4
  %45 = mul nsw i32 1000, %44
  %46 = sub nsw i32 %43, %45
  %47 = sdiv i32 %46, 10000
  %48 = srem i32 %47, 10
  store i32 %48, i32* %7, align 4
  %49 = load i32, i32* %2, align 4
  %50 = icmp sge i32 %49, 0
  br i1 %50, label %51, label %57

51:                                               ; preds = %0
  %52 = load i32, i32* %2, align 4
  %53 = icmp slt i32 %52, 10
  br i1 %53, label %54, label %57

54:                                               ; preds = %51
  %55 = load i32, i32* %3, align 4
  %56 = call i32 (i8*, ...) @printf(i8* getelementptr inbounds ([3 x i8], [3 x i8]* @.str, i64 0, i64 0), i32 %55)
  br label %57

57:                                               ; preds = %54, %51, %0
  %58 = load i32, i32* %2, align 4
  %59 = icmp sge i32 %58, 10
  br i1 %59, label %60, label %67

60:                                               ; preds = %57
  %61 = load i32, i32* %2, align 4
  %62 = icmp slt i32 %61, 100
  br i1 %62, label %63, label %67

63:                                               ; preds = %60
  %64 = load i32, i32* %3, align 4
  %65 = load i32, i32* %4, align 4
  %66 = call i32 (i8*, ...) @printf(i8* getelementptr inbounds ([5 x i8], [5 x i8]* @.str.1, i64 0, i64 0), i32 %64, i32 %65)
  br label %67

67:                                               ; preds = %63, %60, %57
  %68 = load i32, i32* %2, align 4
  %69 = icmp sge i32 %68, 100
  br i1 %69, label %70, label %78

70:                                               ; preds = %67
  %71 = load i32, i32* %2, align 4
  %72 = icmp slt i32 %71, 1000
  br i1 %72, label %73, label %78

73:                                               ; preds = %70
  %74 = load i32, i32* %3, align 4
  %75 = load i32, i32* %4, align 4
  %76 = load i32, i32* %5, align 4
  %77 = call i32 (i8*, ...) @printf(i8* getelementptr inbounds ([7 x i8], [7 x i8]* @.str.2, i64 0, i64 0), i32 %74, i32 %75, i32 %76)
  br label %78

78:                                               ; preds = %73, %70, %67
  %79 = load i32, i32* %2, align 4
  %80 = icmp sge i32 %79, 1000
  br i1 %80, label %81, label %90

81:                                               ; preds = %78
  %82 = load i32, i32* %2, align 4
  %83 = icmp slt i32 %82, 10000
  br i1 %83, label %84, label %90

84:                                               ; preds = %81
  %85 = load i32, i32* %3, align 4
  %86 = load i32, i32* %4, align 4
  %87 = load i32, i32* %5, align 4
  %88 = load i32, i32* %6, align 4
  %89 = call i32 (i8*, ...) @printf(i8* getelementptr inbounds ([9 x i8], [9 x i8]* @.str.3, i64 0, i64 0), i32 %85, i32 %86, i32 %87, i32 %88)
  br label %90

90:                                               ; preds = %84, %81, %78
  %91 = load i32, i32* %2, align 4
  %92 = icmp sge i32 %91, 10000
  br i1 %92, label %93, label %100

93:                                               ; preds = %90
  %94 = load i32, i32* %3, align 4
  %95 = load i32, i32* %4, align 4
  %96 = load i32, i32* %5, align 4
  %97 = load i32, i32* %6, align 4
  %98 = load i32, i32* %7, align 4
  %99 = call i32 (i8*, ...) @printf(i8* getelementptr inbounds ([11 x i8], [11 x i8]* @.str.4, i64 0, i64 0), i32 %94, i32 %95, i32 %96, i32 %97, i32 %98)
  br label %100

100:                                              ; preds = %93, %90
  ret i32 0
}

declare dso_local i32 @__isoc99_scanf(i8*, ...) #1

declare dso_local i32 @printf(i8*, ...) #1


!llvm.module.flags = !{!0}
!llvm.ident = !{!1}

!0 = !{i32 1, !"wchar_size", i32 4}
!1 = !{!"clang version 10.0.0-4ubuntu1 "}
